target datalayout = "e-m:e-p270:32:32-p271:32:32-p272:64:64-i64:64-i128:128-f80:128-n8:16:32:64-S128"
target triple = "x86_64-pc-linux-gnu"

@hf_cql_query_flags_bitmap = internal global i32 0, align 4
@hf_cql_string = internal global i32 0, align 4
@hf_cql_string_length = internal global i32 0, align 4
@hf_cql_consistency = internal global i32 0, align 4
@hf_cql_value_count = internal global i32 0, align 4
@hf_cql_bytes_length = internal global i32 0, align 4
@hf_cql_bytes = internal global i32 0, align 4
@hf_cql_page_size = internal global i32 0, align 4
@hf_cql_timestamp = internal global i32 0, align 4
@ett_cql_query_flags_bitmap = internal global i32 0, align 4

; Function Attrs: null_pointer_is_valid sspstrong uwtable
define internal i32 @dissect_cql_query_parameters(ptr noundef %0, ptr noundef %1, i32 noundef %2, i32 noundef %3) #0 {
  %5 = alloca ptr, align 8
  %6 = alloca ptr, align 8
  %7 = alloca i32, align 4
  %8 = alloca i32, align 4
  %9 = alloca i32, align 4
  %10 = alloca i32, align 4
  %11 = alloca i64, align 8
  %12 = alloca i32, align 4
  %13 = alloca i32, align 4
  store ptr %0, ptr %5, align 8
  store ptr %1, ptr %6, align 8
  store i32 %2, ptr %7, align 4
  store i32 %3, ptr %8, align 4
  call void @llvm.lifetime.start.p0(i64 4, ptr %9) #8
  store i32 0, ptr %9, align 4
  call void @llvm.lifetime.start.p0(i64 4, ptr %10) #8
  store i32 0, ptr %10, align 4
  call void @llvm.lifetime.start.p0(i64 8, ptr %11) #8
  store i64 0, ptr %11, align 8
  call void @llvm.lifetime.start.p0(i64 4, ptr %12) #8
  store i32 0, ptr %12, align 4
  call void @llvm.lifetime.start.p0(i64 4, ptr %13) #8
  store i32 0, ptr %13, align 4
  %14 = load ptr, ptr %5, align 8
  %15 = load i32, ptr @hf_cql_consistency, align 4
  %16 = load ptr, ptr %6, align 8
  %17 = load i32, ptr %7, align 4
  %18 = call ptr @proto_tree_add_item(ptr noundef %14, i32 noundef %15, ptr noundef %16, i32 noundef %17, i32 noundef 2, i32 noundef 0)
  %19 = load i32, ptr %7, align 4
  %20 = add i32 %19, 2
  store i32 %20, ptr %7, align 4
  %21 = load ptr, ptr %5, align 8
  %22 = load ptr, ptr %6, align 8
  %23 = load i32, ptr %7, align 4
  %24 = load i32, ptr @hf_cql_query_flags_bitmap, align 4
  %25 = load i32, ptr @ett_cql_query_flags_bitmap, align 4
  %26 = call ptr @proto_tree_add_bitmask(ptr noundef %21, ptr noundef %22, i32 noundef %23, i32 noundef %24, i32 noundef %25, ptr noundef @dissect_cql_query_parameters.cql_query_bitmaps, i32 noundef 0)
  %27 = load ptr, ptr %6, align 8
  %28 = load i32, ptr %7, align 4
  %29 = call zeroext i8 @tvb_get_uint8(ptr noundef %27, i32 noundef %28)
  %30 = zext i8 %29 to i32
  store i32 %30, ptr %10, align 4
  %31 = load i32, ptr %7, align 4
  %32 = add i32 %31, 1
  store i32 %32, ptr %7, align 4
  %33 = load i32, ptr %10, align 4
  %34 = and i32 %33, 1
  %35 = icmp ne i32 %34, 0
  br i1 %35, label %36, label %98

36:                                               ; preds = %4
  %37 = load ptr, ptr %5, align 8
  %38 = load i32, ptr @hf_cql_value_count, align 4
  %39 = load ptr, ptr %6, align 8
  %40 = load i32, ptr %7, align 4
  %41 = call ptr @proto_tree_add_item_ret_uint(ptr noundef %37, i32 noundef %38, ptr noundef %39, i32 noundef %40, i32 noundef 2, i32 noundef 0, ptr noundef %13)
  %42 = load i32, ptr %7, align 4
  %43 = add i32 %42, 2
  store i32 %43, ptr %7, align 4
  store i64 0, ptr %11, align 8
  br label %44

44:                                               ; preds = %94, %36
  %45 = load i64, ptr %11, align 8
  %46 = load i32, ptr %13, align 4
  %47 = zext i32 %46 to i64
  %48 = icmp ult i64 %45, %47
  br i1 %48, label %49, label %97

49:                                               ; preds = %44
  %50 = load i32, ptr %8, align 4
  %51 = icmp ne i32 %50, 0
  br i1 %51, label %73, label %52

52:                                               ; preds = %49
  %53 = load i32, ptr %10, align 4
  %54 = and i32 %53, 64
  %55 = icmp ne i32 %54, 0
  br i1 %55, label %56, label %73

56:                                               ; preds = %52
  %57 = load ptr, ptr %5, align 8
  %58 = load i32, ptr @hf_cql_string_length, align 4
  %59 = load ptr, ptr %6, align 8
  %60 = load i32, ptr %7, align 4
  %61 = call ptr @proto_tree_add_item_ret_uint(ptr noundef %57, i32 noundef %58, ptr noundef %59, i32 noundef %60, i32 noundef 2, i32 noundef 0, ptr noundef %12)
  %62 = load i32, ptr %7, align 4
  %63 = add i32 %62, 2
  store i32 %63, ptr %7, align 4
  %64 = load ptr, ptr %5, align 8
  %65 = load i32, ptr @hf_cql_string, align 4
  %66 = load ptr, ptr %6, align 8
  %67 = load i32, ptr %7, align 4
  %68 = load i32, ptr %12, align 4
  %69 = call ptr @proto_tree_add_item(ptr noundef %64, i32 noundef %65, ptr noundef %66, i32 noundef %67, i32 noundef %68, i32 noundef 2)
  %70 = load i32, ptr %12, align 4
  %71 = load i32, ptr %7, align 4
  %72 = add i32 %71, %70
  store i32 %72, ptr %7, align 4
  br label %73

73:                                               ; preds = %56, %52, %49
  %74 = load ptr, ptr %5, align 8
  %75 = load i32, ptr @hf_cql_bytes_length, align 4
  %76 = load ptr, ptr %6, align 8
  %77 = load i32, ptr %7, align 4
  %78 = call ptr @proto_tree_add_item_ret_int(ptr noundef %74, i32 noundef %75, ptr noundef %76, i32 noundef %77, i32 noundef 4, i32 noundef 0, ptr noundef %9)
  %79 = load i32, ptr %7, align 4
  %80 = add i32 %79, 4
  store i32 %80, ptr %7, align 4
  %81 = load i32, ptr %9, align 4
  %82 = icmp sgt i32 %81, 0
  br i1 %82, label %83, label %93

83:                                               ; preds = %73
  %84 = load ptr, ptr %5, align 8
  %85 = load i32, ptr @hf_cql_bytes, align 4
  %86 = load ptr, ptr %6, align 8
  %87 = load i32, ptr %7, align 4
  %88 = load i32, ptr %9, align 4
  %89 = call ptr @proto_tree_add_item(ptr noundef %84, i32 noundef %85, ptr noundef %86, i32 noundef %87, i32 noundef %88, i32 noundef 0)
  %90 = load i32, ptr %9, align 4
  %91 = load i32, ptr %7, align 4
  %92 = add i32 %91, %90
  store i32 %92, ptr %7, align 4
  br label %93

93:                                               ; preds = %83, %73
  br label %94

94:                                               ; preds = %93
  %95 = load i64, ptr %11, align 8
  %96 = add i64 %95, 1
  store i64 %96, ptr %11, align 8
  br label %44, !llvm.loop !19

97:                                               ; preds = %44
  br label %98

98:                                               ; preds = %97, %4
  %99 = load i32, ptr %10, align 4
  %100 = and i32 %99, 4
  %101 = icmp ne i32 %100, 0
  br i1 %101, label %102, label %110

102:                                              ; preds = %98
  %103 = load ptr, ptr %5, align 8
  %104 = load i32, ptr @hf_cql_page_size, align 4
  %105 = load ptr, ptr %6, align 8
  %106 = load i32, ptr %7, align 4
  %107 = call ptr @proto_tree_add_item(ptr noundef %103, i32 noundef %104, ptr noundef %105, i32 noundef %106, i32 noundef 4, i32 noundef 0)
  %108 = load i32, ptr %7, align 4
  %109 = add i32 %108, 4
  store i32 %109, ptr %7, align 4
  br label %110

110:                                              ; preds = %102, %98
  %111 = load i32, ptr %10, align 4
  %112 = and i32 %111, 8
  %113 = icmp ne i32 %112, 0
  br i1 %113, label %114, label %135

114:                                              ; preds = %110
  %115 = load ptr, ptr %5, align 8
  %116 = load i32, ptr @hf_cql_bytes_length, align 4
  %117 = load ptr, ptr %6, align 8
  %118 = load i32, ptr %7, align 4
  %119 = call ptr @proto_tree_add_item_ret_int(ptr noundef %115, i32 noundef %116, ptr noundef %117, i32 noundef %118, i32 noundef 4, i32 noundef 0, ptr noundef %9)
  %120 = load i32, ptr %7, align 4
  %121 = add i32 %120, 4
  store i32 %121, ptr %7, align 4
  %122 = load i32, ptr %9, align 4
  %123 = icmp sgt i32 %122, 0
  br i1 %123, label %124, label %134

124:                                              ; preds = %114
  %125 = load ptr, ptr %5, align 8
  %126 = load i32, ptr @hf_cql_bytes, align 4
  %127 = load ptr, ptr %6, align 8
  %128 = load i32, ptr %7, align 4
  %129 = load i32, ptr %9, align 4
  %130 = call ptr @proto_tree_add_item(ptr noundef %125, i32 noundef %126, ptr noundef %127, i32 noundef %128, i32 noundef %129, i32 noundef 0)
  %131 = load i32, ptr %9, align 4
  %132 = load i32, ptr %7, align 4
  %133 = add i32 %132, %131
  store i32 %133, ptr %7, align 4
  br label %134

134:                                              ; preds = %124, %114
  br label %135

135:                                              ; preds = %134, %110
  %136 = load i32, ptr %10, align 4
  %137 = and i32 %136, 16
  %138 = icmp ne i32 %137, 0
  br i1 %138, label %139, label %147

139:                                              ; preds = %135
  %140 = load ptr, ptr %5, align 8
  %141 = load i32, ptr @hf_cql_consistency, align 4
  %142 = load ptr, ptr %6, align 8
  %143 = load i32, ptr %7, align 4
  %144 = call ptr @proto_tree_add_item(ptr noundef %140, i32 noundef %141, ptr noundef %142, i32 noundef %143, i32 noundef 2, i32 noundef 0)
  %145 = load i32, ptr %7, align 4
  %146 = add i32 %145, 2
  store i32 %146, ptr %7, align 4
  br label %147

147:                                              ; preds = %139, %135
  %148 = load i32, ptr %10, align 4
  %149 = and i32 %148, 32
  %150 = icmp ne i32 %149, 0
  br i1 %150, label %151, label %159

151:                                              ; preds = %147
  %152 = load ptr, ptr %5, align 8
  %153 = load i32, ptr @hf_cql_timestamp, align 4
  %154 = load ptr, ptr %6, align 8
  %155 = load i32, ptr %7, align 4
  %156 = call ptr @proto_tree_add_item(ptr noundef %152, i32 noundef %153, ptr noundef %154, i32 noundef %155, i32 noundef 8, i32 noundef 48)
  %157 = load i32, ptr %7, align 4
  %158 = add i32 %157, 8
  store i32 %158, ptr %7, align 4
  br label %159

159:                                              ; preds = %151, %147
  %160 = load i32, ptr %7, align 4
  call void @llvm.lifetime.end.p0(i64 4, ptr %13) #8
  call void @llvm.lifetime.end.p0(i64 4, ptr %12) #8
  call void @llvm.lifetime.end.p0(i64 8, ptr %11) #8
  call void @llvm.lifetime.end.p0(i64 4, ptr %10) #8
  call void @llvm.lifetime.end.p0(i64 4, ptr %9) #8
  ret i32 %160
}