; Function Attrs: null_pointer_is_valid sspstrong uwtable
define internal fastcc void @dissect_cql_query_parameters(ptr noundef %0, ptr noundef %1, i32 noundef %2, i32 noundef range(i32 0, 2) %3) unnamed_addr #0 {
  %5 = alloca i32, align 4
  %6 = alloca i32, align 4
  %7 = alloca i32, align 4
  call void @llvm.lifetime.start.p0(i64 4, ptr nonnull %5) #8
  store i32 0, ptr %5, align 4
  call void @llvm.lifetime.start.p0(i64 4, ptr nonnull %6) #8
  store i32 0, ptr %6, align 4
  call void @llvm.lifetime.start.p0(i64 4, ptr nonnull %7) #8
  store i32 0, ptr %7, align 4
  %8 = load i32, ptr @hf_cql_consistency, align 4
  %9 = tail call ptr @proto_tree_add_item(ptr noundef %0, i32 noundef %8, ptr noundef %1, i32 noundef %2, i32 noundef 2, i32 noundef 0)
  %10 = add i32 %2, 2
  %11 = load i32, ptr @hf_cql_query_flags_bitmap, align 4
  %12 = load i32, ptr @ett_cql_query_flags_bitmap, align 4
  %13 = tail call ptr @proto_tree_add_bitmask(ptr noundef %0, ptr noundef %1, i32 noundef %10, i32 noundef %11, i32 noundef %12, ptr noundef nonnull @dissect_cql_query_parameters.cql_query_bitmaps, i32 noundef 0)
  %14 = tail call zeroext i8 @tvb_get_uint8(ptr noundef %1, i32 noundef %10)
  %15 = zext i8 %14 to i32
  %16 = add i32 %2, 3
  %17 = and i32 %15, 1
  %.not = icmp eq i32 %17, 0
  br i1 %.not, label %.loopexit, label %18

18:                                               ; preds = %4
  %19 = load i32, ptr @hf_cql_value_count, align 4
  %20 = call ptr @proto_tree_add_item_ret_uint(ptr noundef %0, i32 noundef %19, ptr noundef %1, i32 noundef %16, i32 noundef 2, i32 noundef 0, ptr noundef nonnull %7)
  %21 = add i32 %2, 5
  %22 = load i32, ptr %7, align 4
  %.not70 = icmp eq i32 %22, 0
  br i1 %.not70, label %.loopexit, label %.lr.ph

.lr.ph:                                           ; preds = %18
  %.not66 = icmp ne i32 %3, 0
  %23 = and i32 %15, 64
  %.not67 = icmp eq i32 %23, 0
  %or.cond = or i1 %.not66, %.not67
  br i1 %or.cond, label %.lr.ph.split.us, label %.lr.ph.split

.lr.ph.split.us:                                  ; preds = %.lr.ph, %34
  %.069.us = phi i64 [ %35, %34 ], [ 0, %.lr.ph ]
  %.168.us = phi i32 [ %.3.us, %34 ], [ %21, %.lr.ph ]
  %24 = load i32, ptr @hf_cql_bytes_length, align 4
  %25 = call ptr @proto_tree_add_item_ret_int(ptr noundef %0, i32 noundef %24, ptr noundef %1, i32 noundef %.168.us, i32 noundef 4, i32 noundef 0, ptr noundef nonnull %5)
  %26 = add i32 %.168.us, 4
  %27 = load i32, ptr %5, align 4
  %28 = icmp sgt i32 %27, 0
  br i1 %28, label %29, label %34

29:                                               ; preds = %.lr.ph.split.us
  %30 = load i32, ptr @hf_cql_bytes, align 4
  %31 = call ptr @proto_tree_add_item(ptr noundef %0, i32 noundef %30, ptr noundef %1, i32 noundef %26, i32 noundef %27, i32 noundef 0)
  %32 = load i32, ptr %5, align 4
  %33 = add i32 %32, %26
  br label %34

34:                                               ; preds = %29, %.lr.ph.split.us
  %.3.us = phi i32 [ %33, %29 ], [ %26, %.lr.ph.split.us ]
  %35 = add nuw nsw i64 %.069.us, 1
  %36 = load i32, ptr %7, align 4
  %37 = zext i32 %36 to i64
  %38 = icmp samesign ult i64 %35, %37
  br i1 %38, label %.lr.ph.split.us, label %.loopexit, !llvm.loop !18

.lr.ph.split:                                     ; preds = %.lr.ph, %57
  %.069 = phi i64 [ %58, %57 ], [ 0, %.lr.ph ]
  %.168 = phi i32 [ %.3, %57 ], [ %21, %.lr.ph ]
  %39 = load i32, ptr @hf_cql_string_length, align 4
  %40 = call ptr @proto_tree_add_item_ret_uint(ptr noundef %0, i32 noundef %39, ptr noundef %1, i32 noundef %.168, i32 noundef 2, i32 noundef 0, ptr noundef nonnull %6)
  %41 = add i32 %.168, 2
  %42 = load i32, ptr @hf_cql_string, align 4
  %43 = load i32, ptr %6, align 4
  %44 = call ptr @proto_tree_add_item(ptr noundef %0, i32 noundef %42, ptr noundef %1, i32 noundef %41, i32 noundef %43, i32 noundef 2)
  %45 = load i32, ptr %6, align 4
  %46 = add i32 %45, %41
  %47 = load i32, ptr @hf_cql_bytes_length, align 4
  %48 = call ptr @proto_tree_add_item_ret_int(ptr noundef %0, i32 noundef %47, ptr noundef %1, i32 noundef %46, i32 noundef 4, i32 noundef 0, ptr noundef nonnull %5)
  %49 = add i32 %46, 4
  %50 = load i32, ptr %5, align 4
  %51 = icmp sgt i32 %50, 0
  br i1 %51, label %52, label %57

52:                                               ; preds = %.lr.ph.split
  %53 = load i32, ptr @hf_cql_bytes, align 4
  %54 = call ptr @proto_tree_add_item(ptr noundef %0, i32 noundef %53, ptr noundef %1, i32 noundef %49, i32 noundef %50, i32 noundef 0)
  %55 = load i32, ptr %5, align 4
  %56 = add i32 %55, %49
  br label %57

57:                                               ; preds = %.lr.ph.split, %52
  %.3 = phi i32 [ %56, %52 ], [ %49, %.lr.ph.split ]
  %58 = add nuw nsw i64 %.069, 1
  %59 = load i32, ptr %7, align 4
  %60 = zext i32 %59 to i64
  %61 = icmp samesign ult i64 %58, %60
  br i1 %61, label %.lr.ph.split, label %.loopexit, !llvm.loop !18

.loopexit:                                        ; preds = %57, %34, %18, %4
  %.059 = phi i32 [ %16, %4 ], [ %21, %18 ], [ %.3.us, %34 ], [ %.3, %57 ]
  %62 = and i32 %15, 4
  %.not62 = icmp eq i32 %62, 0
  br i1 %.not62, label %67, label %63

63:                                               ; preds = %.loopexit
  %64 = load i32, ptr @hf_cql_page_size, align 4
  %65 = call ptr @proto_tree_add_item(ptr noundef %0, i32 noundef %64, ptr noundef %1, i32 noundef %.059, i32 noundef 4, i32 noundef 0)
  %66 = add i32 %.059, 4
  br label %67

67:                                               ; preds = %63, %.loopexit
  %.4 = phi i32 [ %66, %63 ], [ %.059, %.loopexit ]
  %68 = and i32 %15, 8
  %.not63 = icmp eq i32 %68, 0
  br i1 %.not63, label %80, label %69

69:                                               ; preds = %67
  %70 = load i32, ptr @hf_cql_bytes_length, align 4
  %71 = call ptr @proto_tree_add_item_ret_int(ptr noundef %0, i32 noundef %70, ptr noundef %1, i32 noundef %.4, i32 noundef 4, i32 noundef 0, ptr noundef nonnull %5)
  %72 = add i32 %.4, 4
  %73 = load i32, ptr %5, align 4
  %74 = icmp sgt i32 %73, 0
  br i1 %74, label %75, label %80

75:                                               ; preds = %69
  %76 = load i32, ptr @hf_cql_bytes, align 4
  %77 = call ptr @proto_tree_add_item(ptr noundef %0, i32 noundef %76, ptr noundef %1, i32 noundef %72, i32 noundef %73, i32 noundef 0)
  %78 = load i32, ptr %5, align 4
  %79 = add i32 %78, %72
  br label %80

80:                                               ; preds = %69, %75, %67
  %.5 = phi i32 [ %79, %75 ], [ %72, %69 ], [ %.4, %67 ]
  %81 = and i32 %15, 16
  %.not64 = icmp eq i32 %81, 0
  br i1 %.not64, label %86, label %82

82:                                               ; preds = %80
  %83 = load i32, ptr @hf_cql_consistency, align 4
  %84 = call ptr @proto_tree_add_item(ptr noundef %0, i32 noundef %83, ptr noundef %1, i32 noundef %.5, i32 noundef 2, i32 noundef 0)
  %85 = add i32 %.5, 2
  br label %86

86:                                               ; preds = %82, %80
  %.6 = phi i32 [ %85, %82 ], [ %.5, %80 ]
  %87 = and i32 %15, 32
  %.not65 = icmp eq i32 %87, 0
  br i1 %.not65, label %91, label %88

88:                                               ; preds = %86
  %89 = load i32, ptr @hf_cql_timestamp, align 4
  %90 = call ptr @proto_tree_add_item(ptr noundef %0, i32 noundef %89, ptr noundef %1, i32 noundef %.6, i32 noundef 8, i32 noundef 48)
  br label %91

91:                                               ; preds = %88, %86
  call void @llvm.lifetime.end.p0(i64 4, ptr nonnull %7) #8
  call void @llvm.lifetime.end.p0(i64 4, ptr nonnull %6) #8
  call void @llvm.lifetime.end.p0(i64 4, ptr nonnull %5) #8
  ret void
}